; ModuleID = 'bench/faiss/original/benchmark_main.ll'
source_filename = "bench/faiss/original/benchmark_main.ll"
target datalayout = "e-m:e-p270:32:32-p271:32:32-p272:64:64-i64:64-i128:128-f80:128-n8:16:32:64-S128"
target triple = "x86_64-pc-linux-gnu"

@__const.main.arg0_default = private unnamed_addr constant [10 x i8] c"benchmark\00", align 1
@llvm.global_ctors = appending global [1 x { i32, ptr, ptr }] [{ i32, ptr, ptr } { i32 65535, ptr @_GLOBAL__sub_I_benchmark_main.cc, ptr null }]

declare noundef i32 @_ZN9benchmark8internal17InitializeStreamsEv() local_unnamed_addr #0

; Function Attrs: mustprogress norecurse uwtable
define noundef range(i32 0, 2) i32 @main(i32 noundef %0, ptr noundef %1) local_unnamed_addr #1 {
  %3 = alloca i32, align 4
  %4 = alloca [10 x i8], align 1
  %5 = alloca ptr, align 8
  store i32 %0, ptr %3, align 4, !tbaa !3
  call void @llvm.lifetime.start.p0(i64 10, ptr nonnull %4) #5
  call void @llvm.memcpy.p0.p0.i64(ptr noundef nonnull align 1 dereferenceable(10) %4, ptr noundef nonnull align 1 dereferenceable(10) @__const.main.arg0_default, i64 10, i1 false)
  call void @llvm.lifetime.start.p0(i64 8, ptr nonnull %5) #5
  store ptr %4, ptr %5, align 8, !tbaa !7
  %.not = icmp eq ptr %1, null
  br i1 %.not, label %6, label %7

6:                                                ; preds = %2
  store i32 1, ptr %3, align 4, !tbaa !3
  br label %7

7:                                                ; preds = %6, %2
  %.0 = phi ptr [ %1, %2 ], [ %5, %6 ]
  call void @_ZN9benchmark10InitializeEPiPPcPFvvE(ptr noundef nonnull %3, ptr noundef nonnull %.0, ptr noundef nonnull @_ZN9benchmark16PrintDefaultHelpEv)
  %8 = load i32, ptr %3, align 4, !tbaa !3
  %9 = call noundef zeroext i1 @_ZN9benchmark27ReportUnrecognizedArgumentsEiPPc(i32 noundef %8, ptr noundef nonnull %.0)
  br i1 %9, label %12, label %10

10:                                               ; preds = %7
  %11 = call noundef i64 @_ZN9benchmark22RunSpecifiedBenchmarksEv()
  call void @_ZN9benchmark8ShutdownEv()
  br label %12

12:                                               ; preds = %7, %10
  %.03 = phi i32 [ 0, %10 ], [ 1, %7 ]
  call void @llvm.lifetime.end.p0(i64 8, ptr nonnull %5) #5
  call void @llvm.lifetime.end.p0(i64 10, ptr nonnull %4) #5
  ret i32 %.03
}

; Function Attrs: mustprogress nocallback nofree nosync nounwind willreturn memory(argmem: readwrite)
declare void @llvm.lifetime.start.p0(i64 immarg, ptr captures(none)) #2

; Function Attrs: mustprogress nocallback nofree nounwind willreturn memory(argmem: readwrite)
declare void @llvm.memcpy.p0.p0.i64(ptr noalias writeonly captures(none), ptr noalias readonly captures(none), i64, i1 immarg) #3

declare void @_ZN9benchmark10InitializeEPiPPcPFvvE(ptr noundef, ptr noundef, ptr noundef) local_unnamed_addr #0

declare void @_ZN9benchmark16PrintDefaultHelpEv() #0

declare noundef zeroext i1 @_ZN9benchmark27ReportUnrecognizedArgumentsEiPPc(i32 noundef, ptr noundef) local_unnamed_addr #0

declare noundef i64 @_ZN9benchmark22RunSpecifiedBenchmarksEv() local_unnamed_addr #0

declare void @_ZN9benchmark8ShutdownEv() local_unnamed_addr #0

; Function Attrs: mustprogress nocallback nofree nosync nounwind willreturn memory(argmem: readwrite)
declare void @llvm.lifetime.end.p0(i64 immarg, ptr captures(none)) #2

; Function Attrs: uwtable
define internal void @_GLOBAL__sub_I_benchmark_main.cc() #4 section ".text.startup" {
  %1 = tail call noundef i32 @_ZN9benchmark8internal17InitializeStreamsEv()
  ret void
}


!llvm.module.flags = !{!0, !1, !2}

!0 = !{i32 1, !"wchar_size", i32 4}
!1 = !{i32 8, !"PIC Level", i32 2}
!2 = !{i32 7, !"uwtable", i32 2}
!3 = !{!4, !4, i64 0}
!4 = !{!"int", !5, i64 0}
!5 = !{!"omnipotent char", !6, i64 0}
!6 = !{!"Simple C++ TBAA"}
!7 = !{!8, !8, i64 0}
!8 = !{!"p1 omnipotent char", !9, i64 0}
!9 = !{!"any pointer", !5, i64 0}
